target datalayout = "e-m:e-p270:32:32-p271:32:32-p272:64:64-i64:64-i128:128-f80:128-n8:16:32:64-S128"
target triple = "x86_64-pc-linux-gnu"

%struct.GENERAL_NAME_st = type { i32, %union.anon }
%union.anon = type { ptr }
%struct.otherName_st = type { ptr, ptr }
%struct.asn1_type_st = type { i32, %union.anon.0 }
%union.anon.0 = type { ptr }
%struct.asn1_string_st = type { i32, i32, ptr, i64 }

@.str.15 = private unnamed_addr constant [32 x i8] c"../openssl/crypto/x509/v3_san.c\00", align 1
@.str.17 = private unnamed_addr constant [24 x i8] c"othername:<unsupported>\00", align 1
@.str.18 = private unnamed_addr constant [31 x i8] c"othername:SmtpUTF8Mailbox:%.*s\00", align 1
@.str.19 = private unnamed_addr constant [24 x i8] c"othername:XmppAddr:%.*s\00", align 1
@.str.20 = private unnamed_addr constant [23 x i8] c"othername:SRVName:%.*s\00", align 1
@.str.21 = private unnamed_addr constant [19 x i8] c"othername:UPN:%.*s\00", align 1
@.str.22 = private unnamed_addr constant [24 x i8] c"othername:NAIRealm:%.*s\00", align 1
@.str.23 = private unnamed_addr constant [23 x i8] c"X400Name:<unsupported>\00", align 1
@.str.24 = private unnamed_addr constant [27 x i8] c"EdiPartyName:<unsupported>\00", align 1
@.str.25 = private unnamed_addr constant [7 x i8] c"email:\00", align 1
@.str.26 = private unnamed_addr constant [5 x i8] c"DNS:\00", align 1
@.str.27 = private unnamed_addr constant [5 x i8] c"URI:\00", align 1
@.str.28 = private unnamed_addr constant [9 x i8] c"DirName:\00", align 1
@.str.29 = private unnamed_addr constant [14 x i8] c"IP Address:%s\00", align 1
@.str.30 = private unnamed_addr constant [15 x i8] c"Registered ID:\00", align 1

; Function Attrs: nounwind uwtable
define i32 @GENERAL_NAME_print(ptr noundef %0, ptr noundef %1) #1 {
  %3 = alloca i32, align 4
  %4 = alloca ptr, align 8
  %5 = alloca ptr, align 8
  %6 = alloca ptr, align 8
  %7 = alloca i32, align 4
  %8 = alloca i32, align 4
  store ptr %0, ptr %4, align 8, !tbaa !42
  store ptr %1, ptr %5, align 8, !tbaa !14
  call void @llvm.lifetime.start.p0(i64 8, ptr %6) #5
  call void @llvm.lifetime.start.p0(i64 4, ptr %7) #5
  %9 = load ptr, ptr %5, align 8, !tbaa !14
  %10 = getelementptr inbounds nuw %struct.GENERAL_NAME_st, ptr %9, i32 0, i32 0
  %11 = load i32, ptr %10, align 8, !tbaa !27
  switch i32 %11, label %222 [
    i32 0, label %12
    i32 3, label %156
    i32 5, label %159
    i32 1, label %162
    i32 2, label %170
    i32 6, label %178
    i32 4, label %186
    i32 7, label %194
    i32 8, label %214
  ]

12:                                               ; preds = %2
  %13 = load ptr, ptr %5, align 8, !tbaa !14
  %14 = getelementptr inbounds nuw %struct.GENERAL_NAME_st, ptr %13, i32 0, i32 1
  %15 = load ptr, ptr %14, align 8, !tbaa !29
  %16 = getelementptr inbounds nuw %struct.otherName_st, ptr %15, i32 0, i32 0
  %17 = load ptr, ptr %16, align 8, !tbaa !30
  %18 = call i32 @OBJ_obj2nid(ptr noundef %17)
  store i32 %18, ptr %7, align 4, !tbaa !12
  %19 = load i32, ptr %7, align 4, !tbaa !12
  %20 = icmp eq i32 %19, 1210
  br i1 %20, label %21, label %30

21:                                               ; preds = %12
  %22 = load ptr, ptr %5, align 8, !tbaa !14
  %23 = getelementptr inbounds nuw %struct.GENERAL_NAME_st, ptr %22, i32 0, i32 1
  %24 = load ptr, ptr %23, align 8, !tbaa !29
  %25 = getelementptr inbounds nuw %struct.otherName_st, ptr %24, i32 0, i32 1
  %26 = load ptr, ptr %25, align 8, !tbaa !34
  %27 = getelementptr inbounds nuw %struct.asn1_type_st, ptr %26, i32 0, i32 0
  %28 = load i32, ptr %27, align 8, !tbaa !35
  %29 = icmp ne i32 %28, 22
  br i1 %29, label %42, label %30

30:                                               ; preds = %21, %12
  %31 = load i32, ptr %7, align 4, !tbaa !12
  %32 = icmp ne i32 %31, 1210
  br i1 %32, label %33, label %45

33:                                               ; preds = %30
  %34 = load ptr, ptr %5, align 8, !tbaa !14
  %35 = getelementptr inbounds nuw %struct.GENERAL_NAME_st, ptr %34, i32 0, i32 1
  %36 = load ptr, ptr %35, align 8, !tbaa !29
  %37 = getelementptr inbounds nuw %struct.otherName_st, ptr %36, i32 0, i32 1
  %38 = load ptr, ptr %37, align 8, !tbaa !34
  %39 = getelementptr inbounds nuw %struct.asn1_type_st, ptr %38, i32 0, i32 0
  %40 = load i32, ptr %39, align 8, !tbaa !35
  %41 = icmp ne i32 %40, 12
  br i1 %41, label %42, label %45

42:                                               ; preds = %33, %21
  %43 = load ptr, ptr %4, align 8, !tbaa !42
  %44 = call i32 (ptr, ptr, ...) @BIO_printf(ptr noundef %43, ptr noundef @.str.17)
  br label %222

45:                                               ; preds = %33, %30
  %46 = load i32, ptr %7, align 4, !tbaa !12
  switch i32 %46, label %152 [
    i32 1208, label %47
    i32 1209, label %68
    i32 1210, label %89
    i32 649, label %110
    i32 1211, label %131
  ]

47:                                               ; preds = %45
  %48 = load ptr, ptr %4, align 8, !tbaa !42
  %49 = load ptr, ptr %5, align 8, !tbaa !14
  %50 = getelementptr inbounds nuw %struct.GENERAL_NAME_st, ptr %49, i32 0, i32 1
  %51 = load ptr, ptr %50, align 8, !tbaa !29
  %52 = getelementptr inbounds nuw %struct.otherName_st, ptr %51, i32 0, i32 1
  %53 = load ptr, ptr %52, align 8, !tbaa !34
  %54 = getelementptr inbounds nuw %struct.asn1_type_st, ptr %53, i32 0, i32 1
  %55 = load ptr, ptr %54, align 8, !tbaa !29
  %56 = getelementptr inbounds nuw %struct.asn1_string_st, ptr %55, i32 0, i32 0
  %57 = load i32, ptr %56, align 8, !tbaa !40
  %58 = load ptr, ptr %5, align 8, !tbaa !14
  %59 = getelementptr inbounds nuw %struct.GENERAL_NAME_st, ptr %58, i32 0, i32 1
  %60 = load ptr, ptr %59, align 8, !tbaa !29
  %61 = getelementptr inbounds nuw %struct.otherName_st, ptr %60, i32 0, i32 1
  %62 = load ptr, ptr %61, align 8, !tbaa !34
  %63 = getelementptr inbounds nuw %struct.asn1_type_st, ptr %62, i32 0, i32 1
  %64 = load ptr, ptr %63, align 8, !tbaa !29
  %65 = getelementptr inbounds nuw %struct.asn1_string_st, ptr %64, i32 0, i32 2
  %66 = load ptr, ptr %65, align 8, !tbaa !37
  %67 = call i32 (ptr, ptr, ...) @BIO_printf(ptr noundef %48, ptr noundef @.str.18, i32 noundef %57, ptr noundef %66)
  br label %155

68:                                               ; preds = %45
  %69 = load ptr, ptr %4, align 8, !tbaa !42
  %70 = load ptr, ptr %5, align 8, !tbaa !14
  %71 = getelementptr inbounds nuw %struct.GENERAL_NAME_st, ptr %70, i32 0, i32 1
  %72 = load ptr, ptr %71, align 8, !tbaa !29
  %73 = getelementptr inbounds nuw %struct.otherName_st, ptr %72, i32 0, i32 1
  %74 = load ptr, ptr %73, align 8, !tbaa !34
  %75 = getelementptr inbounds nuw %struct.asn1_type_st, ptr %74, i32 0, i32 1
  %76 = load ptr, ptr %75, align 8, !tbaa !29
  %77 = getelementptr inbounds nuw %struct.asn1_string_st, ptr %76, i32 0, i32 0
  %78 = load i32, ptr %77, align 8, !tbaa !40
  %79 = load ptr, ptr %5, align 8, !tbaa !14
  %80 = getelementptr inbounds nuw %struct.GENERAL_NAME_st, ptr %79, i32 0, i32 1
  %81 = load ptr, ptr %80, align 8, !tbaa !29
  %82 = getelementptr inbounds nuw %struct.otherName_st, ptr %81, i32 0, i32 1
  %83 = load ptr, ptr %82, align 8, !tbaa !34
  %84 = getelementptr inbounds nuw %struct.asn1_type_st, ptr %83, i32 0, i32 1
  %85 = load ptr, ptr %84, align 8, !tbaa !29
  %86 = getelementptr inbounds nuw %struct.asn1_string_st, ptr %85, i32 0, i32 2
  %87 = load ptr, ptr %86, align 8, !tbaa !37
  %88 = call i32 (ptr, ptr, ...) @BIO_printf(ptr noundef %69, ptr noundef @.str.19, i32 noundef %78, ptr noundef %87)
  br label %155

89:                                               ; preds = %45
  %90 = load ptr, ptr %4, align 8, !tbaa !42
  %91 = load ptr, ptr %5, align 8, !tbaa !14
  %92 = getelementptr inbounds nuw %struct.GENERAL_NAME_st, ptr %91, i32 0, i32 1
  %93 = load ptr, ptr %92, align 8, !tbaa !29
  %94 = getelementptr inbounds nuw %struct.otherName_st, ptr %93, i32 0, i32 1
  %95 = load ptr, ptr %94, align 8, !tbaa !34
  %96 = getelementptr inbounds nuw %struct.asn1_type_st, ptr %95, i32 0, i32 1
  %97 = load ptr, ptr %96, align 8, !tbaa !29
  %98 = getelementptr inbounds nuw %struct.asn1_string_st, ptr %97, i32 0, i32 0
  %99 = load i32, ptr %98, align 8, !tbaa !40
  %100 = load ptr, ptr %5, align 8, !tbaa !14
  %101 = getelementptr inbounds nuw %struct.GENERAL_NAME_st, ptr %100, i32 0, i32 1
  %102 = load ptr, ptr %101, align 8, !tbaa !29
  %103 = getelementptr inbounds nuw %struct.otherName_st, ptr %102, i32 0, i32 1
  %104 = load ptr, ptr %103, align 8, !tbaa !34
  %105 = getelementptr inbounds nuw %struct.asn1_type_st, ptr %104, i32 0, i32 1
  %106 = load ptr, ptr %105, align 8, !tbaa !29
  %107 = getelementptr inbounds nuw %struct.asn1_string_st, ptr %106, i32 0, i32 2
  %108 = load ptr, ptr %107, align 8, !tbaa !37
  %109 = call i32 (ptr, ptr, ...) @BIO_printf(ptr noundef %90, ptr noundef @.str.20, i32 noundef %99, ptr noundef %108)
  br label %155

110:                                              ; preds = %45
  %111 = load ptr, ptr %4, align 8, !tbaa !42
  %112 = load ptr, ptr %5, align 8, !tbaa !14
  %113 = getelementptr inbounds nuw %struct.GENERAL_NAME_st, ptr %112, i32 0, i32 1
  %114 = load ptr, ptr %113, align 8, !tbaa !29
  %115 = getelementptr inbounds nuw %struct.otherName_st, ptr %114, i32 0, i32 1
  %116 = load ptr, ptr %115, align 8, !tbaa !34
  %117 = getelementptr inbounds nuw %struct.asn1_type_st, ptr %116, i32 0, i32 1
  %118 = load ptr, ptr %117, align 8, !tbaa !29
  %119 = getelementptr inbounds nuw %struct.asn1_string_st, ptr %118, i32 0, i32 0
  %120 = load i32, ptr %119, align 8, !tbaa !40
  %121 = load ptr, ptr %5, align 8, !tbaa !14
  %122 = getelementptr inbounds nuw %struct.GENERAL_NAME_st, ptr %121, i32 0, i32 1
  %123 = load ptr, ptr %122, align 8, !tbaa !29
  %124 = getelementptr inbounds nuw %struct.otherName_st, ptr %123, i32 0, i32 1
  %125 = load ptr, ptr %124, align 8, !tbaa !34
  %126 = getelementptr inbounds nuw %struct.asn1_type_st, ptr %125, i32 0, i32 1
  %127 = load ptr, ptr %126, align 8, !tbaa !29
  %128 = getelementptr inbounds nuw %struct.asn1_string_st, ptr %127, i32 0, i32 2
  %129 = load ptr, ptr %128, align 8, !tbaa !37
  %130 = call i32 (ptr, ptr, ...) @BIO_printf(ptr noundef %111, ptr noundef @.str.21, i32 noundef %120, ptr noundef %129)
  br label %155

131:                                              ; preds = %45
  %132 = load ptr, ptr %4, align 8, !tbaa !42
  %133 = load ptr, ptr %5, align 8, !tbaa !14
  %134 = getelementptr inbounds nuw %struct.GENERAL_NAME_st, ptr %133, i32 0, i32 1
  %135 = load ptr, ptr %134, align 8, !tbaa !29
  %136 = getelementptr inbounds nuw %struct.otherName_st, ptr %135, i32 0, i32 1
  %137 = load ptr, ptr %136, align 8, !tbaa !34
  %138 = getelementptr inbounds nuw %struct.asn1_type_st, ptr %137, i32 0, i32 1
  %139 = load ptr, ptr %138, align 8, !tbaa !29
  %140 = getelementptr inbounds nuw %struct.asn1_string_st, ptr %139, i32 0, i32 0
  %141 = load i32, ptr %140, align 8, !tbaa !40
  %142 = load ptr, ptr %5, align 8, !tbaa !14
  %143 = getelementptr inbounds nuw %struct.GENERAL_NAME_st, ptr %142, i32 0, i32 1
  %144 = load ptr, ptr %143, align 8, !tbaa !29
  %145 = getelementptr inbounds nuw %struct.otherName_st, ptr %144, i32 0, i32 1
  %146 = load ptr, ptr %145, align 8, !tbaa !34
  %147 = getelementptr inbounds nuw %struct.asn1_type_st, ptr %146, i32 0, i32 1
  %148 = load ptr, ptr %147, align 8, !tbaa !29
  %149 = getelementptr inbounds nuw %struct.asn1_string_st, ptr %148, i32 0, i32 2
  %150 = load ptr, ptr %149, align 8, !tbaa !37
  %151 = call i32 (ptr, ptr, ...) @BIO_printf(ptr noundef %132, ptr noundef @.str.22, i32 noundef %141, ptr noundef %150)
  br label %155

152:                                              ; preds = %45
  %153 = load ptr, ptr %4, align 8, !tbaa !42
  %154 = call i32 (ptr, ptr, ...) @BIO_printf(ptr noundef %153, ptr noundef @.str.17)
  br label %155

155:                                              ; preds = %152, %131, %110, %89, %68, %47
  br label %222

156:                                              ; preds = %2
  %157 = load ptr, ptr %4, align 8, !tbaa !42
  %158 = call i32 (ptr, ptr, ...) @BIO_printf(ptr noundef %157, ptr noundef @.str.23)
  br label %222

159:                                              ; preds = %2
  %160 = load ptr, ptr %4, align 8, !tbaa !42
  %161 = call i32 (ptr, ptr, ...) @BIO_printf(ptr noundef %160, ptr noundef @.str.24)
  br label %222

162:                                              ; preds = %2
  %163 = load ptr, ptr %4, align 8, !tbaa !42
  %164 = call i32 (ptr, ptr, ...) @BIO_printf(ptr noundef %163, ptr noundef @.str.25)
  %165 = load ptr, ptr %4, align 8, !tbaa !42
  %166 = load ptr, ptr %5, align 8, !tbaa !14
  %167 = getelementptr inbounds nuw %struct.GENERAL_NAME_st, ptr %166, i32 0, i32 1
  %168 = load ptr, ptr %167, align 8, !tbaa !29
  %169 = call i32 @ASN1_STRING_print(ptr noundef %165, ptr noundef %168)
  br label %222

170:                                              ; preds = %2
  %171 = load ptr, ptr %4, align 8, !tbaa !42
  %172 = call i32 (ptr, ptr, ...) @BIO_printf(ptr noundef %171, ptr noundef @.str.26)
  %173 = load ptr, ptr %4, align 8, !tbaa !42
  %174 = load ptr, ptr %5, align 8, !tbaa !14
  %175 = getelementptr inbounds nuw %struct.GENERAL_NAME_st, ptr %174, i32 0, i32 1
  %176 = load ptr, ptr %175, align 8, !tbaa !29
  %177 = call i32 @ASN1_STRING_print(ptr noundef %173, ptr noundef %176)
  br label %222

178:                                              ; preds = %2
  %179 = load ptr, ptr %4, align 8, !tbaa !42
  %180 = call i32 (ptr, ptr, ...) @BIO_printf(ptr noundef %179, ptr noundef @.str.27)
  %181 = load ptr, ptr %4, align 8, !tbaa !42
  %182 = load ptr, ptr %5, align 8, !tbaa !14
  %183 = getelementptr inbounds nuw %struct.GENERAL_NAME_st, ptr %182, i32 0, i32 1
  %184 = load ptr, ptr %183, align 8, !tbaa !29
  %185 = call i32 @ASN1_STRING_print(ptr noundef %181, ptr noundef %184)
  br label %222

186:                                              ; preds = %2
  %187 = load ptr, ptr %4, align 8, !tbaa !42
  %188 = call i32 (ptr, ptr, ...) @BIO_printf(ptr noundef %187, ptr noundef @.str.28)
  %189 = load ptr, ptr %4, align 8, !tbaa !42
  %190 = load ptr, ptr %5, align 8, !tbaa !14
  %191 = getelementptr inbounds nuw %struct.GENERAL_NAME_st, ptr %190, i32 0, i32 1
  %192 = load ptr, ptr %191, align 8, !tbaa !29
  %193 = call i32 @X509_NAME_print_ex(ptr noundef %189, ptr noundef %192, i32 noundef 0, i64 noundef 8520479)
  br label %222

194:                                              ; preds = %2
  %195 = load ptr, ptr %5, align 8, !tbaa !14
  %196 = getelementptr inbounds nuw %struct.GENERAL_NAME_st, ptr %195, i32 0, i32 1
  %197 = load ptr, ptr %196, align 8, !tbaa !29
  %198 = getelementptr inbounds nuw %struct.asn1_string_st, ptr %197, i32 0, i32 2
  %199 = load ptr, ptr %198, align 8, !tbaa !37
  %200 = load ptr, ptr %5, align 8, !tbaa !14
  %201 = getelementptr inbounds nuw %struct.GENERAL_NAME_st, ptr %200, i32 0, i32 1
  %202 = load ptr, ptr %201, align 8, !tbaa !29
  %203 = getelementptr inbounds nuw %struct.asn1_string_st, ptr %202, i32 0, i32 0
  %204 = load i32, ptr %203, align 8, !tbaa !40
  %205 = call ptr @ossl_ipaddr_to_asc(ptr noundef %199, i32 noundef %204)
  store ptr %205, ptr %6, align 8, !tbaa !41
  %206 = load ptr, ptr %6, align 8, !tbaa !41
  %207 = icmp eq ptr %206, null
  br i1 %207, label %208, label %209

208:                                              ; preds = %194
  store i32 0, ptr %3, align 4
  store i32 1, ptr %8, align 4
  br label %223

209:                                              ; preds = %194
  %210 = load ptr, ptr %4, align 8, !tbaa !42
  %211 = load ptr, ptr %6, align 8, !tbaa !41
  %212 = call i32 (ptr, ptr, ...) @BIO_printf(ptr noundef %210, ptr noundef @.str.29, ptr noundef %211)
  %213 = load ptr, ptr %6, align 8, !tbaa !41
  call void @CRYPTO_free(ptr noundef %213, ptr noundef @.str.15, i32 noundef 290)
  br label %222

214:                                              ; preds = %2
  %215 = load ptr, ptr %4, align 8, !tbaa !42
  %216 = call i32 (ptr, ptr, ...) @BIO_printf(ptr noundef %215, ptr noundef @.str.30)
  %217 = load ptr, ptr %4, align 8, !tbaa !42
  %218 = load ptr, ptr %5, align 8, !tbaa !14
  %219 = getelementptr inbounds nuw %struct.GENERAL_NAME_st, ptr %218, i32 0, i32 1
  %220 = load ptr, ptr %219, align 8, !tbaa !29
  %221 = call i32 @i2a_ASN1_OBJECT(ptr noundef %217, ptr noundef %220)
  br label %222

222:                                              ; preds = %2, %214, %209, %186, %178, %170, %162, %159, %156, %155, %42
  store i32 1, ptr %3, align 4
  store i32 1, ptr %8, align 4
  br label %223

223:                                              ; preds = %222, %208
  call void @llvm.lifetime.end.p0(i64 4, ptr %7) #5
  call void @llvm.lifetime.end.p0(i64 8, ptr %6) #5
  %224 = load i32, ptr %3, align 4
  ret i32 %224
}