; Function Attrs: nounwind uwtable
define range(i32 0, 2) i32 @GENERAL_NAME_print(ptr noundef %0, ptr noundef readonly captures(none) %1) local_unnamed_addr #1 {
  %3 = load i32, ptr %1, align 8, !tbaa !26
  switch i32 %3, label %94 [
    i32 0, label %4
    i32 3, label %55
    i32 5, label %57
    i32 1, label %59
    i32 2, label %64
    i32 6, label %69
    i32 4, label %74
    i32 7, label %79
    i32 8, label %89
  ]

4:                                                ; preds = %2
  %5 = getelementptr inbounds nuw i8, ptr %1, i64 8
  %6 = load ptr, ptr %5, align 8, !tbaa !28
  %7 = load ptr, ptr %6, align 8, !tbaa !29
  %8 = tail call i32 @OBJ_obj2nid(ptr noundef %7) #4
  %cond = icmp eq i32 %8, 1210
  %9 = load ptr, ptr %5, align 8, !tbaa !28
  %10 = getelementptr inbounds nuw i8, ptr %9, i64 8
  %11 = load ptr, ptr %10, align 8, !tbaa !33
  %12 = load i32, ptr %11, align 8, !tbaa !34
  br i1 %cond, label %13, label %14

13:                                               ; preds = %4
  %.not = icmp eq i32 %12, 22
  br i1 %.not, label %32, label %15

14:                                               ; preds = %4
  %.not49 = icmp eq i32 %12, 12
  br i1 %.not49, label %17, label %15

15:                                               ; preds = %14, %13
  %16 = tail call i32 (ptr, ptr, ...) @BIO_printf(ptr noundef %0, ptr noundef nonnull @.str.17) #4
  br label %94

17:                                               ; preds = %14
  switch i32 %8, label %53 [
    i32 1208, label %18
    i32 1209, label %25
    i32 1211, label %46
    i32 649, label %39
  ]

18:                                               ; preds = %17
  %19 = getelementptr inbounds nuw i8, ptr %11, i64 8
  %20 = load ptr, ptr %19, align 8, !tbaa !28
  %21 = load i32, ptr %20, align 8, !tbaa !39
  %22 = getelementptr inbounds nuw i8, ptr %20, i64 8
  %23 = load ptr, ptr %22, align 8, !tbaa !36
  %24 = tail call i32 (ptr, ptr, ...) @BIO_printf(ptr noundef %0, ptr noundef nonnull @.str.18, i32 noundef %21, ptr noundef %23) #4
  br label %94

25:                                               ; preds = %17
  %26 = getelementptr inbounds nuw i8, ptr %11, i64 8
  %27 = load ptr, ptr %26, align 8, !tbaa !28
  %28 = load i32, ptr %27, align 8, !tbaa !39
  %29 = getelementptr inbounds nuw i8, ptr %27, i64 8
  %30 = load ptr, ptr %29, align 8, !tbaa !36
  %31 = tail call i32 (ptr, ptr, ...) @BIO_printf(ptr noundef %0, ptr noundef nonnull @.str.19, i32 noundef %28, ptr noundef %30) #4
  br label %94

32:                                               ; preds = %13
  %33 = getelementptr inbounds nuw i8, ptr %11, i64 8
  %34 = load ptr, ptr %33, align 8, !tbaa !28
  %35 = load i32, ptr %34, align 8, !tbaa !39
  %36 = getelementptr inbounds nuw i8, ptr %34, i64 8
  %37 = load ptr, ptr %36, align 8, !tbaa !36
  %38 = tail call i32 (ptr, ptr, ...) @BIO_printf(ptr noundef %0, ptr noundef nonnull @.str.20, i32 noundef %35, ptr noundef %37) #4
  br label %94

39:                                               ; preds = %17
  %40 = getelementptr inbounds nuw i8, ptr %11, i64 8
  %41 = load ptr, ptr %40, align 8, !tbaa !28
  %42 = load i32, ptr %41, align 8, !tbaa !39
  %43 = getelementptr inbounds nuw i8, ptr %41, i64 8
  %44 = load ptr, ptr %43, align 8, !tbaa !36
  %45 = tail call i32 (ptr, ptr, ...) @BIO_printf(ptr noundef %0, ptr noundef nonnull @.str.21, i32 noundef %42, ptr noundef %44) #4
  br label %94

46:                                               ; preds = %17
  %47 = getelementptr inbounds nuw i8, ptr %11, i64 8
  %48 = load ptr, ptr %47, align 8, !tbaa !28
  %49 = load i32, ptr %48, align 8, !tbaa !39
  %50 = getelementptr inbounds nuw i8, ptr %48, i64 8
  %51 = load ptr, ptr %50, align 8, !tbaa !36
  %52 = tail call i32 (ptr, ptr, ...) @BIO_printf(ptr noundef %0, ptr noundef nonnull @.str.22, i32 noundef %49, ptr noundef %51) #4
  br label %94

53:                                               ; preds = %17
  %54 = tail call i32 (ptr, ptr, ...) @BIO_printf(ptr noundef %0, ptr noundef nonnull @.str.17) #4
  br label %94

55:                                               ; preds = %2
  %56 = tail call i32 (ptr, ptr, ...) @BIO_printf(ptr noundef %0, ptr noundef nonnull @.str.23) #4
  br label %94

57:                                               ; preds = %2
  %58 = tail call i32 (ptr, ptr, ...) @BIO_printf(ptr noundef %0, ptr noundef nonnull @.str.24) #4
  br label %94

59:                                               ; preds = %2
  %60 = tail call i32 (ptr, ptr, ...) @BIO_printf(ptr noundef %0, ptr noundef nonnull @.str.25) #4
  %61 = getelementptr inbounds nuw i8, ptr %1, i64 8
  %62 = load ptr, ptr %61, align 8, !tbaa !28
  %63 = tail call i32 @ASN1_STRING_print(ptr noundef %0, ptr noundef %62) #4
  br label %94

64:                                               ; preds = %2
  %65 = tail call i32 (ptr, ptr, ...) @BIO_printf(ptr noundef %0, ptr noundef nonnull @.str.26) #4
  %66 = getelementptr inbounds nuw i8, ptr %1, i64 8
  %67 = load ptr, ptr %66, align 8, !tbaa !28
  %68 = tail call i32 @ASN1_STRING_print(ptr noundef %0, ptr noundef %67) #4
  br label %94

69:                                               ; preds = %2
  %70 = tail call i32 (ptr, ptr, ...) @BIO_printf(ptr noundef %0, ptr noundef nonnull @.str.27) #4
  %71 = getelementptr inbounds nuw i8, ptr %1, i64 8
  %72 = load ptr, ptr %71, align 8, !tbaa !28
  %73 = tail call i32 @ASN1_STRING_print(ptr noundef %0, ptr noundef %72) #4
  br label %94

74:                                               ; preds = %2
  %75 = tail call i32 (ptr, ptr, ...) @BIO_printf(ptr noundef %0, ptr noundef nonnull @.str.28) #4
  %76 = getelementptr inbounds nuw i8, ptr %1, i64 8
  %77 = load ptr, ptr %76, align 8, !tbaa !28
  %78 = tail call i32 @X509_NAME_print_ex(ptr noundef %0, ptr noundef %77, i32 noundef 0, i64 noundef 8520479) #4
  br label %94

79:                                               ; preds = %2
  %80 = getelementptr inbounds nuw i8, ptr %1, i64 8
  %81 = load ptr, ptr %80, align 8, !tbaa !28
  %82 = getelementptr inbounds nuw i8, ptr %81, i64 8
  %83 = load ptr, ptr %82, align 8, !tbaa !36
  %84 = load i32, ptr %81, align 8, !tbaa !39
  %85 = tail call ptr @ossl_ipaddr_to_asc(ptr noundef %83, i32 noundef %84) #4
  %86 = icmp eq ptr %85, null
  br i1 %86, label %94, label %87

87:                                               ; preds = %79
  %88 = tail call i32 (ptr, ptr, ...) @BIO_printf(ptr noundef %0, ptr noundef nonnull @.str.29, ptr noundef nonnull %85) #4
  tail call void @CRYPTO_free(ptr noundef nonnull %85, ptr noundef nonnull @.str.15, i32 noundef 290) #4
  br label %94

89:                                               ; preds = %2
  %90 = tail call i32 (ptr, ptr, ...) @BIO_printf(ptr noundef %0, ptr noundef nonnull @.str.30) #4
  %91 = getelementptr inbounds nuw i8, ptr %1, i64 8
  %92 = load ptr, ptr %91, align 8, !tbaa !28
  %93 = tail call i32 @i2a_ASN1_OBJECT(ptr noundef %0, ptr noundef %92) #4
  br label %94

94:                                               ; preds = %2, %15, %55, %57, %59, %64, %69, %74, %87, %89, %53, %46, %39, %32, %25, %18, %79
  %.0 = phi i32 [ 0, %79 ], [ 1, %18 ], [ 1, %25 ], [ 1, %32 ], [ 1, %39 ], [ 1, %46 ], [ 1, %53 ], [ 1, %89 ], [ 1, %87 ], [ 1, %74 ], [ 1, %69 ], [ 1, %64 ], [ 1, %59 ], [ 1, %57 ], [ 1, %55 ], [ 1, %15 ], [ 1, %2 ]
  ret i32 %.0
}